; Function Attrs: null_pointer_is_valid sspstrong uwtable
define hidden noundef i32 @dissect_ndr_uint8s(ptr noundef %0, i32 noundef %1, ptr noundef readnone captures(none) %2, ptr noundef %3, ptr noundef readonly captures(none) %4, ptr noundef readnone captures(none) %5, i32 noundef %6, i32 noundef %7, ptr noundef writeonly captures(address_is_null) %8) local_unnamed_addr #0 {
  %10 = getelementptr inbounds nuw i8, ptr %4, i64 25
  %11 = load i8, ptr %10, align 1, !range !6, !noundef !7
  %12 = trunc nuw i8 %11 to i1
  br i1 %12, label %18, label %13

13:                                               ; preds = %9
  %14 = tail call ptr @tvb_get_ptr(ptr noundef %0, i32 noundef %1, i32 noundef %7)
  %15 = tail call ptr @proto_tree_add_item(ptr noundef %3, i32 noundef %6, ptr noundef %0, i32 noundef %1, i32 noundef %7, i32 noundef 0)
  %.not.i = icmp eq ptr %8, null
  br i1 %.not.i, label %dissect_dcerpc_uint8s.exit, label %16

16:                                               ; preds = %13
  store ptr %14, ptr %8, align 8
  br label %dissect_dcerpc_uint8s.exit

dissect_dcerpc_uint8s.exit:                       ; preds = %13, %16
  %17 = add i32 %7, %1
  br label %18

18:                                               ; preds = %9, %dissect_dcerpc_uint8s.exit
  %.0 = phi i32 [ %17, %dissect_dcerpc_uint8s.exit ], [ %1, %9 ]
  ret i32 %.0
}